; Function Attrs: mustprogress nounwind uwtable
define dso_local void @_ZNK4llvm14ProfileSummary12printSummaryERNS_11raw_ostreamE(ptr nocapture noundef nonnull readonly align 8 dereferenceable(88) %0, ptr noundef nonnull align 8 dereferenceable(48) %1) local_unnamed_addr #0 align 2 {
  %3 = getelementptr inbounds nuw i8, ptr %1, i64 24
  %4 = load ptr, ptr %3, align 8
  %5 = getelementptr inbounds nuw i8, ptr %1, i64 32
  %6 = load ptr, ptr %5, align 8
  %7 = ptrtoint ptr %4 to i64
  %8 = ptrtoint ptr %6 to i64
  %9 = sub i64 %7, %8
  %10 = icmp ult i64 %9, 17
  br i1 %10, label %11, label %13

11:                                               ; preds = %2
  %12 = tail call noundef nonnull align 8 dereferenceable(48) ptr @_ZN4llvm11raw_ostream5writeEPKcm(ptr noundef nonnull align 8 dereferenceable(48) %1, ptr noundef nonnull @.str.13, i64 noundef 17) #13
  br label %_ZN4llvm11raw_ostreamlsEPKc.exit

13:                                               ; preds = %2
  tail call void @llvm.memcpy.p0.p0.i64(ptr noundef nonnull align 1 dereferenceable(17) %6, ptr noundef nonnull align 1 dereferenceable(17) @.str.13, i64 17, i1 false)
  %14 = load ptr, ptr %5, align 8
  %15 = getelementptr inbounds i8, ptr %14, i64 17
  store ptr %15, ptr %5, align 8
  br label %_ZN4llvm11raw_ostreamlsEPKc.exit

_ZN4llvm11raw_ostreamlsEPKc.exit:                 ; preds = %11, %13
  %.0.i.i = phi ptr [ %12, %11 ], [ %1, %13 ]
  %16 = getelementptr inbounds nuw i8, ptr %0, i64 68
  %17 = load i32, ptr %16, align 4
  %18 = zext i32 %17 to i64
  %19 = tail call noundef nonnull align 8 dereferenceable(48) ptr @_ZN4llvm11raw_ostreamlsEm(ptr noundef nonnull align 8 dereferenceable(48) %.0.i.i, i64 noundef %18) #13
  %20 = getelementptr inbounds nuw i8, ptr %19, i64 24
  %21 = load ptr, ptr %20, align 8
  %22 = getelementptr inbounds nuw i8, ptr %19, i64 32
  %23 = load ptr, ptr %22, align 8
  %24 = icmp eq ptr %21, %23
  br i1 %24, label %25, label %27

25:                                               ; preds = %_ZN4llvm11raw_ostreamlsEPKc.exit
  %26 = tail call noundef nonnull align 8 dereferenceable(48) ptr @_ZN4llvm11raw_ostream5writeEPKcm(ptr noundef nonnull align 8 dereferenceable(48) %19, ptr noundef nonnull @.str.14, i64 noundef 1) #13
  br label %_ZN4llvm11raw_ostreamlsEPKc.exit8

27:                                               ; preds = %_ZN4llvm11raw_ostreamlsEPKc.exit
  store i8 10, ptr %23, align 1
  %28 = load ptr, ptr %22, align 8
  %29 = getelementptr inbounds i8, ptr %28, i64 1
  store ptr %29, ptr %22, align 8
  br label %_ZN4llvm11raw_ostreamlsEPKc.exit8

_ZN4llvm11raw_ostreamlsEPKc.exit8:                ; preds = %25, %27
  %30 = load ptr, ptr %3, align 8
  %31 = load ptr, ptr %5, align 8
  %32 = ptrtoint ptr %30 to i64
  %33 = ptrtoint ptr %31 to i64
  %34 = sub i64 %32, %33
  %35 = icmp ult i64 %34, 24
  br i1 %35, label %36, label %38

36:                                               ; preds = %_ZN4llvm11raw_ostreamlsEPKc.exit8
  %37 = tail call noundef nonnull align 8 dereferenceable(48) ptr @_ZN4llvm11raw_ostream5writeEPKcm(ptr noundef nonnull align 8 dereferenceable(48) %1, ptr noundef nonnull @.str.15, i64 noundef 24) #13
  br label %_ZN4llvm11raw_ostreamlsEPKc.exit11

38:                                               ; preds = %_ZN4llvm11raw_ostreamlsEPKc.exit8
  tail call void @llvm.memcpy.p0.p0.i64(ptr noundef nonnull align 1 dereferenceable(24) %31, ptr noundef nonnull align 1 dereferenceable(24) @.str.15, i64 24, i1 false)
  %39 = load ptr, ptr %5, align 8
  %40 = getelementptr inbounds i8, ptr %39, i64 24
  store ptr %40, ptr %5, align 8
  br label %_ZN4llvm11raw_ostreamlsEPKc.exit11

_ZN4llvm11raw_ostreamlsEPKc.exit11:               ; preds = %36, %38
  %.0.i.i10 = phi ptr [ %37, %36 ], [ %1, %38 ]
  %41 = getelementptr inbounds nuw i8, ptr %0, i64 56
  %42 = load i64, ptr %41, align 8
  %43 = tail call noundef nonnull align 8 dereferenceable(48) ptr @_ZN4llvm11raw_ostreamlsEm(ptr noundef nonnull align 8 dereferenceable(48) %.0.i.i10, i64 noundef %42) #13
  %44 = getelementptr inbounds nuw i8, ptr %43, i64 24
  %45 = load ptr, ptr %44, align 8
  %46 = getelementptr inbounds nuw i8, ptr %43, i64 32
  %47 = load ptr, ptr %46, align 8
  %48 = icmp eq ptr %45, %47
  br i1 %48, label %49, label %51

49:                                               ; preds = %_ZN4llvm11raw_ostreamlsEPKc.exit11
  %50 = tail call noundef nonnull align 8 dereferenceable(48) ptr @_ZN4llvm11raw_ostream5writeEPKcm(ptr noundef nonnull align 8 dereferenceable(48) %43, ptr noundef nonnull @.str.14, i64 noundef 1) #13
  br label %_ZN4llvm11raw_ostreamlsEPKc.exit14

51:                                               ; preds = %_ZN4llvm11raw_ostreamlsEPKc.exit11
  store i8 10, ptr %47, align 1
  %52 = load ptr, ptr %46, align 8
  %53 = getelementptr inbounds i8, ptr %52, i64 1
  store ptr %53, ptr %46, align 8
  br label %_ZN4llvm11raw_ostreamlsEPKc.exit14

_ZN4llvm11raw_ostreamlsEPKc.exit14:               ; preds = %49, %51
  %54 = load ptr, ptr %3, align 8
  %55 = load ptr, ptr %5, align 8
  %56 = ptrtoint ptr %54 to i64
  %57 = ptrtoint ptr %55 to i64
  %58 = sub i64 %56, %57
  %59 = icmp ult i64 %58, 21
  br i1 %59, label %60, label %62

60:                                               ; preds = %_ZN4llvm11raw_ostreamlsEPKc.exit14
  %61 = tail call noundef nonnull align 8 dereferenceable(48) ptr @_ZN4llvm11raw_ostream5writeEPKcm(ptr noundef nonnull align 8 dereferenceable(48) %1, ptr noundef nonnull @.str.16, i64 noundef 21) #13
  br label %_ZN4llvm11raw_ostreamlsEPKc.exit17

62:                                               ; preds = %_ZN4llvm11raw_ostreamlsEPKc.exit14
  tail call void @llvm.memcpy.p0.p0.i64(ptr noundef nonnull align 1 dereferenceable(21) %55, ptr noundef nonnull align 1 dereferenceable(21) @.str.16, i64 21, i1 false)
  %63 = load ptr, ptr %5, align 8
  %64 = getelementptr inbounds i8, ptr %63, i64 21
  store ptr %64, ptr %5, align 8
  br label %_ZN4llvm11raw_ostreamlsEPKc.exit17

_ZN4llvm11raw_ostreamlsEPKc.exit17:               ; preds = %60, %62
  %.0.i.i16 = phi ptr [ %61, %60 ], [ %1, %62 ]
  %65 = getelementptr inbounds nuw i8, ptr %0, i64 40
  %66 = load i64, ptr %65, align 8
  %67 = tail call noundef nonnull align 8 dereferenceable(48) ptr @_ZN4llvm11raw_ostreamlsEm(ptr noundef nonnull align 8 dereferenceable(48) %.0.i.i16, i64 noundef %66) #13
  %68 = getelementptr inbounds nuw i8, ptr %67, i64 24
  %69 = load ptr, ptr %68, align 8
  %70 = getelementptr inbounds nuw i8, ptr %67, i64 32
  %71 = load ptr, ptr %70, align 8
  %72 = icmp eq ptr %69, %71
  br i1 %72, label %73, label %75

73:                                               ; preds = %_ZN4llvm11raw_ostreamlsEPKc.exit17
  %74 = tail call noundef nonnull align 8 dereferenceable(48) ptr @_ZN4llvm11raw_ostream5writeEPKcm(ptr noundef nonnull align 8 dereferenceable(48) %67, ptr noundef nonnull @.str.14, i64 noundef 1) #13
  br label %_ZN4llvm11raw_ostreamlsEPKc.exit20

75:                                               ; preds = %_ZN4llvm11raw_ostreamlsEPKc.exit17
  store i8 10, ptr %71, align 1
  %76 = load ptr, ptr %70, align 8
  %77 = getelementptr inbounds i8, ptr %76, i64 1
  store ptr %77, ptr %70, align 8
  br label %_ZN4llvm11raw_ostreamlsEPKc.exit20

_ZN4llvm11raw_ostreamlsEPKc.exit20:               ; preds = %73, %75
  %78 = load ptr, ptr %3, align 8
  %79 = load ptr, ptr %5, align 8
  %80 = ptrtoint ptr %78 to i64
  %81 = ptrtoint ptr %79 to i64
  %82 = sub i64 %80, %81
  %83 = icmp ult i64 %82, 24
  br i1 %83, label %84, label %86

84:                                               ; preds = %_ZN4llvm11raw_ostreamlsEPKc.exit20
  %85 = tail call noundef nonnull align 8 dereferenceable(48) ptr @_ZN4llvm11raw_ostream5writeEPKcm(ptr noundef nonnull align 8 dereferenceable(48) %1, ptr noundef nonnull @.str.17, i64 noundef 24) #13
  br label %_ZN4llvm11raw_ostreamlsEPKc.exit23

86:                                               ; preds = %_ZN4llvm11raw_ostreamlsEPKc.exit20
  tail call void @llvm.memcpy.p0.p0.i64(ptr noundef nonnull align 1 dereferenceable(24) %79, ptr noundef nonnull align 1 dereferenceable(24) @.str.17, i64 24, i1 false)
  %87 = load ptr, ptr %5, align 8
  %88 = getelementptr inbounds i8, ptr %87, i64 24
  store ptr %88, ptr %5, align 8
  br label %_ZN4llvm11raw_ostreamlsEPKc.exit23

_ZN4llvm11raw_ostreamlsEPKc.exit23:               ; preds = %84, %86
  %.0.i.i22 = phi ptr [ %85, %84 ], [ %1, %86 ]
  %89 = getelementptr inbounds nuw i8, ptr %0, i64 64
  %90 = load i32, ptr %89, align 8
  %91 = zext i32 %90 to i64
  %92 = tail call noundef nonnull align 8 dereferenceable(48) ptr @_ZN4llvm11raw_ostreamlsEm(ptr noundef nonnull align 8 dereferenceable(48) %.0.i.i22, i64 noundef %91) #13
  %93 = getelementptr inbounds nuw i8, ptr %92, i64 24
  %94 = load ptr, ptr %93, align 8
  %95 = getelementptr inbounds nuw i8, ptr %92, i64 32
  %96 = load ptr, ptr %95, align 8
  %97 = icmp eq ptr %94, %96
  br i1 %97, label %98, label %100

98:                                               ; preds = %_ZN4llvm11raw_ostreamlsEPKc.exit23
  %99 = tail call noundef nonnull align 8 dereferenceable(48) ptr @_ZN4llvm11raw_ostream5writeEPKcm(ptr noundef nonnull align 8 dereferenceable(48) %92, ptr noundef nonnull @.str.14, i64 noundef 1) #13
  br label %_ZN4llvm11raw_ostreamlsEPKc.exit26

100:                                              ; preds = %_ZN4llvm11raw_ostreamlsEPKc.exit23
  store i8 10, ptr %96, align 1
  %101 = load ptr, ptr %95, align 8
  %102 = getelementptr inbounds i8, ptr %101, i64 1
  store ptr %102, ptr %95, align 8
  br label %_ZN4llvm11raw_ostreamlsEPKc.exit26

_ZN4llvm11raw_ostreamlsEPKc.exit26:               ; preds = %98, %100
  %103 = load ptr, ptr %3, align 8
  %104 = load ptr, ptr %5, align 8
  %105 = ptrtoint ptr %103 to i64
  %106 = ptrtoint ptr %104 to i64
  %107 = sub i64 %105, %106
  %108 = icmp ult i64 %107, 13
  br i1 %108, label %109, label %111

109:                                              ; preds = %_ZN4llvm11raw_ostreamlsEPKc.exit26
  %110 = tail call noundef nonnull align 8 dereferenceable(48) ptr @_ZN4llvm11raw_ostream5writeEPKcm(ptr noundef nonnull align 8 dereferenceable(48) %1, ptr noundef nonnull @.str.18, i64 noundef 13) #13
  br label %_ZN4llvm11raw_ostreamlsEPKc.exit29

111:                                              ; preds = %_ZN4llvm11raw_ostreamlsEPKc.exit26
  tail call void @llvm.memcpy.p0.p0.i64(ptr noundef nonnull align 1 dereferenceable(13) %104, ptr noundef nonnull align 1 dereferenceable(13) @.str.18, i64 13, i1 false)
  %112 = load ptr, ptr %5, align 8
  %113 = getelementptr inbounds i8, ptr %112, i64 13
  store ptr %113, ptr %5, align 8
  br label %_ZN4llvm11raw_ostreamlsEPKc.exit29

_ZN4llvm11raw_ostreamlsEPKc.exit29:               ; preds = %109, %111
  %.0.i.i28 = phi ptr [ %110, %109 ], [ %1, %111 ]
  %114 = getelementptr inbounds nuw i8, ptr %0, i64 32
  %115 = load i64, ptr %114, align 8
  %116 = tail call noundef nonnull align 8 dereferenceable(48) ptr @_ZN4llvm11raw_ostreamlsEm(ptr noundef nonnull align 8 dereferenceable(48) %.0.i.i28, i64 noundef %115) #13
  %117 = getelementptr inbounds nuw i8, ptr %116, i64 24
  %118 = load ptr, ptr %117, align 8
  %119 = getelementptr inbounds nuw i8, ptr %116, i64 32
  %120 = load ptr, ptr %119, align 8
  %121 = icmp eq ptr %118, %120
  br i1 %121, label %122, label %124

122:                                              ; preds = %_ZN4llvm11raw_ostreamlsEPKc.exit29
  %123 = tail call noundef nonnull align 8 dereferenceable(48) ptr @_ZN4llvm11raw_ostream5writeEPKcm(ptr noundef nonnull align 8 dereferenceable(48) %116, ptr noundef nonnull @.str.14, i64 noundef 1) #13
  br label %_ZN4llvm11raw_ostreamlsEPKc.exit32

124:                                              ; preds = %_ZN4llvm11raw_ostreamlsEPKc.exit29
  store i8 10, ptr %120, align 1
  %125 = load ptr, ptr %119, align 8
  %126 = getelementptr inbounds i8, ptr %125, i64 1
  store ptr %126, ptr %119, align 8
  br label %_ZN4llvm11raw_ostreamlsEPKc.exit32

_ZN4llvm11raw_ostreamlsEPKc.exit32:               ; preds = %122, %124
  ret void
}